Certificate:
    Data:
        Version: 3 (0x2)
        Serial Number: 4097 (0x1001)
        Signature Algorithm: sha256WithRSAEncryption
        Issuer: C=LB, ST=Mount Lebanon, L=Jdeideh, O=GlyphChain, CN=GlyphChain Intermediate CA
        Validity
            Not Before: Jun 23 17:28:34 2026 GMT
            Not After : Jun 22 17:28:34 2028 GMT
        Subject: C=LB, ST=Mount Lebanon, L=Jdeideh, O=GlyphChain, OU=orderer, CN=orderer0.glyphchain.local
        Subject Public Key Info:
            Public Key Algorithm: rsaEncryption
                Public-Key: (4096 bit)
                Modulus:
                    00:ae:0b:1a:c8:91:8a:c5:8c:2e:ba:ab:c9:c8:37:
                    da:30:87:47:7e:6a:24:38:95:73:cf:9d:1a:d3:b9:
                    07:ee:5b:78:8b:b6:0e:29:30:6d:50:b2:66:e6:ac:
                    01:5d:a5:04:af:db:20:fb:2d:51:79:12:b5:e7:1a:
                    d5:00:d2:a9:67:3d:12:37:5c:4f:db:5b:e0:66:62:
                    16:e8:02:78:2f:b3:5f:6e:18:5e:ba:ab:3f:95:16:
                    38:ab:c2:a0:cc:a8:b3:ee:b0:b4:90:4d:03:cf:6e:
                    b5:8e:c1:02:f8:47:75:2b:fe:72:fb:6c:d8:eb:23:
                    b3:b8:9e:21:7b:38:5c:ef:d9:12:f1:17:df:a3:ac:
                    02:66:a9:38:02:99:3c:ec:9d:b2:89:60:1a:46:2e:
                    3a:01:54:ac:5a:1f:8d:ef:39:20:c8:dd:d2:b0:0f:
                    b1:af:16:ae:d1:48:0b:b6:d8:e2:41:9d:5a:6b:cd:
                    2d:f2:34:82:2e:1e:6f:2c:70:47:6d:fb:de:41:7a:
                    45:27:a2:8a:87:1d:86:d8:6e:bd:e3:20:c7:d5:36:
                    6d:a6:19:cc:d1:1e:98:88:ad:47:8c:79:5a:98:75:
                    b6:bc:95:3a:73:b7:99:71:5c:b4:03:a6:30:e6:fc:
                    6e:05:09:37:07:75:ee:90:34:a2:b0:e6:99:5a:a6:
                    48:a7:2e:e0:fc:18:c9:00:00:a1:0f:d4:94:a0:68:
                    c6:97:6a:3b:36:75:07:3a:47:9c:a4:f8:6a:ab:5e:
                    9d:e9:ed:10:64:af:41:1a:6e:ef:a4:b5:f5:41:c2:
                    be:e2:00:ab:7e:b3:ee:d4:70:89:75:01:e5:8d:21:
                    75:7a:b3:23:e1:c1:2f:21:d1:e4:0f:75:79:8a:87:
                    ba:bb:28:bb:97:13:c2:bb:84:41:b8:2a:d4:63:e0:
                    ce:a2:b7:43:b9:69:2f:b7:e7:02:15:1c:12:8d:6a:
                    98:6d:89:4e:2f:0f:46:be:a7:49:99:7e:f6:ee:2b:
                    cd:54:8a:c6:71:0d:f5:87:54:64:13:45:b0:ac:93:
                    ed:47:8e:c6:e4:67:42:c8:07:37:70:8b:19:f9:02:
                    3b:90:85:88:d9:14:f1:ac:53:07:4d:7d:2d:78:87:
                    54:86:6c:14:a5:9a:ae:46:6e:24:b9:53:27:d9:bb:
                    b1:3a:20:2d:a5:c0:ff:8c:e0:55:3b:93:94:a4:ab:
                    a1:90:a5:68:33:e5:e1:e5:0c:10:2b:23:09:5d:bd:
                    a0:31:f1:18:3e:e6:0c:ae:fd:8c:2d:c2:2c:03:74:
                    bf:8e:ad:e8:c9:a5:1c:72:71:6d:66:6a:e8:f5:97:
                    37:e8:00:b0:be:b8:76:c1:70:dc:b4:ed:4b:d0:e4:
                    dc:78:23
                Exponent: 65537 (0x10001)
        X509v3 extensions:
            X509v3 Subject Key Identifier: 
                B2:B3:24:D3:7F:A0:CD:94:81:45:E3:54:E3:CD:86:E6:66:68:E2:9F
            X509v3 Authority Key Identifier: 
                14:A0:9B:26:B4:38:84:7A:34:69:14:FF:D0:0B:E7:5F:E0:2C:A9:D4
    Signature Algorithm: sha256WithRSAEncryption
    Signature Value:
        59:ce:c1:50:e2:47:b7:42:45:68:9c:ea:4e:c9:bd:ff:e7:6e:
        8e:e1:ab:70:05:c6:c3:ee:12:d2:ac:71:09:e2:b2:4e:02:64:
        68:f6:48:a3:c1:8e:7f:ad:67:d9:ca:3c:35:2e:33:a0:fa:75:
        4d:52:ef:e3:d0:c8:04:d2:56:de:76:ee:3b:ae:4e:50:4c:3f:
        fa:75:66:a9:99:fc:90:5f:c0:b2:94:c2:60:ac:3a:eb:cf:9e:
        a9:77:4c:8b:6a:89:4a:65:b0:27:53:57:0c:03:e8:a7:20:fa:
        3b:8f:84:5a:4a:2f:2d:2c:d0:92:7c:26:22:a1:de:1e:32:70:
        96:76:02:b9:6b:0e:13:c8:f0:22:de:1d:d9:f6:0c:86:2d:0f:
        c5:3e:86:bf:a3:99:86:ed:43:c9:f7:3b:ef:68:f6:a2:ba:85:
        2e:e2:f2:19:9a:21:b2:a7:1d:de:a2:a3:16:96:49:5e:62:18:
        63:e5:ff:2a:5b:8d:b0:b1:a9:b6:16:ef:77:8c:e6:c3:ad:2f:
        78:0d:52:50:aa:a5:33:8e:bf:34:7b:e7:80:4d:af:91:fb:61:
        54:8a:3e:21:4c:6d:17:32:5b:df:97:7e:43:1c:17:c7:29:66:
        b9:56:a9:da:d5:8a:14:6b:0e:31:a7:2c:43:1a:d4:a8:19:0b:
        68:db:28:1d:fc:79:b0:0c:e7:d1:20:6b:e0:d3:58:2f:6e:b9:
        97:66:19:57:5e:f4:6b:84:c6:20:9b:10:e5:b4:07:43:d8:94:
        b1:d9:cc:1c:85:25:89:b6:6d:d5:92:7b:15:37:9e:93:12:d3:
        b1:ab:b6:42:fc:e5:52:b0:bd:42:88:98:26:68:89:c9:b4:74:
        fa:a8:e2:aa:23:c2:97:d4:90:0f:ba:b0:59:4a:3d:5a:f3:97:
        14:89:fd:42:60:f0:1a:96:86:40:fe:90:d7:31:18:56:d9:b4:
        6c:a1:22:00:12:b6:ee:2b:df:10:bd:ab:12:28:a9:60:60:fc:
        6c:37:13:ea:f1:d9:2b:25:4b:01:1a:37:12:01:4b:05:76:8d:
        96:14:bc:cb:23:63:75:58:c2:df:20:49:cb:e4:bb:ba:2e:a7:
        7c:15:e9:0a:15:84:dd:9f:ff:c9:f4:2d:4a:af:16:6f:57:5c:
        6d:b7:f8:db:4c:83:af:bf:20:8f:e6:c2:f8:98:fc:7e:73:a3:
        bf:44:01:bf:36:47:ec:23:63:f7:0b:20:42:cf:e7:56:e7:0c:
        38:a2:5c:1d:ba:05:61:ca:02:98:4c:54:7b:13:1a:76:43:1f:
        bf:2d:0f:cf:f8:a1:89:dd:ac:42:b4:13:bc:6d:0f:30:bd:25:
        b5:5b:e0:76:c7:1f:de:a3
-----BEGIN CERTIFICATE-----
MIIFsjCCA5qgAwIBAgICEAEwDQYJKoZIhvcNAQELBQAwcTELMAkGA1UEBhMCTEIx
FjAUBgNVBAgTDU1vdW50IExlYmFub24xEDAOBgNVBAcTB0pkZWlkZWgxEzARBgNV
BAoTCkdseXBoQ2hhaW4xIzAhBgNVBAMTGkdseXBoQ2hhaW4gSW50ZXJtZWRpYXRl
IENBMB4XDTI2MDYyMzE3MjgzNFoXDTI4MDYyMjE3MjgzNFowgYIxCzAJBgNVBAYT
AkxCMRYwFAYDVQQIDA1Nb3VudCBMZWJhbm9uMRAwDgYDVQQHDAdKZGVpZGVoMRMw
EQYDVQQKDApHbHlwaENoYWluMRAwDgYDVQQLDAdvcmRlcmVyMSIwIAYDVQQDDBlv
cmRlcmVyMC5nbHlwaGNoYWluLmxvY2FsMIICIjANBgkqhkiG9w0BAQEFAAOCAg8A
MIICCgKCAgEArgsayJGKxYwuuqvJyDfaMIdHfmokOJVzz50a07kH7lt4i7YOKTBt
ULJm5qwBXaUEr9sg+y1ReRK15xrVANKpZz0SN1xP21vgZmIW6AJ4L7Nfbhheuqs/
lRY4q8KgzKiz7rC0kE0Dz261jsEC+Ed1K/5y+2zY6yOzuJ4hezhc79kS8Rffo6wC
Zqk4Apk87J2yiWAaRi46AVSsWh+N7zkgyN3SsA+xrxau0UgLttjiQZ1aa80t8jSC
Lh5vLHBHbfveQXpFJ6KKhx2G2G694yDH1TZtphnM0R6YiK1HjHlamHW2vJU6c7eZ
cVy0A6Yw5vxuBQk3B3XukDSisOaZWqZIpy7g/BjJAAChD9SUoGjGl2o7NnUHOkec
pPhqq16d6e0QZK9BGm7vpLX1QcK+4gCrfrPu1HCJdQHljSF1erMj4cEvIdHkD3V5
ioe6uyi7lxPCu4RBuCrUY+DOordDuWkvt+cCFRwSjWqYbYlOLw9GvqdJmX727ivN
VIrGcQ31h1RkE0WwrJPtR47G5GdCyAc3cIsZ+QI7kIWI2RTxrFMHTX0teIdUhmwU
pZquRm4kuVMn2buxOiAtpcD/jOBVO5OUpKuhkKVoM+Xh5QwQKyMJXb2gMfEYPuYM
rv2MLcIsA3S/jq3oyaUccnFtZmro9Zc36ACwvrh2wXDctO1L0OTceCMCAwEAAaNC
MEAwHQYDVR0OBBYEFLKzJNN/oM2UgUXjVOPNhuZmaOKfMB8GA1UdIwQYMBaAFBSg
mya0OIR6NGkU/9AL51/gLKnUMA0GCSqGSIb3DQEBCwUAA4ICAQBZzsFQ4ke3QkVo
nOpOyb3/526O4atwBcbD7hLSrHEJ4rJOAmRo9kijwY5/rWfZyjw1LjOg+nVNUu/j
0MgE0lbedu47rk5QTD/6dWapmfyQX8CylMJgrDrrz56pd0yLaolKZbAnU1cMA+in
IPo7j4RaSi8tLNCSfCYiod4eMnCWdgK5aw4TyPAi3h3Z9gyGLQ/FPoa/o5mG7UPJ
9zvvaPaiuoUu4vIZmiGypx3eoqMWlkleYhhj5f8qW42wsam2Fu93jObDrS94DVJQ
qqUzjr80e+eATa+R+2FUij4hTG0XMlvfl35DHBfHKWa5Vqna1YoUaw4xpyxDGtSo
GQto2ygd/HmwDOfRIGvg01gvbrmXZhlXXvRrhMYgmxDltAdD2JSx2cwchSWJtm3V
knsVN56TEtOxq7ZC/OVSsL1CiJgmaInJtHT6qOKqI8KX1JAPurBZSj1a85cUif1C
YPAaloZA/pDXMRhW2bRsoSIAErbuK98QvasSKKlgYPxsNxPq8dkrJUsBGjcSAUsF
do2WFLzLI2N1WMLfIEnL5Lu6Lqd8FekKFYTdn//J9C1KrxZvV1xtt/jbTIOvvyCP
5sL4mPx+c6O/RAG/NkfsI2P3CyBCz+dW5ww4olwdugVhygKYTFR7Exp2Qx+/LQ/P
+KGJ3axCtBO8bQ8wvSW1W+B2xx/eow==
-----END CERTIFICATE-----
